target datalayout = "e-m:e-p270:32:32-p271:32:32-p272:64:64-i64:64-i128:128-f80:128-n8:16:32:64-S128"
target triple = "x86_64-pc-linux-gnu"

%struct.AVCodecContext = type { ptr, i32, i32, ptr, i32, i32, ptr, ptr, ptr, i64, i32, i32, ptr, i32, %struct.AVRational, %struct.AVRational, %struct.AVRational, i32, i32, i32, i32, i32, %struct.AVRational, i32, i32, i32, i32, i32, i32, i32, i32, i32, i32, i32, ptr, ptr, i32, float, float, float, float, float, float, float, float, float, i32, i32, i32, i32, i32, i32, i32, i32, i32, i32, i32, i32, ptr, ptr, ptr, i32, i32, i32, i32, i32, i32, i32, i32, i32, i32, %struct.AVChannelLayout, i32, i32, i32, i32, i32, i32, i32, i32, ptr, i32, i32, i32, float, float, i32, i32, i32, i32, i32, ptr, i64, i64, float, float, i32, i32, ptr, ptr, i32, i32, i32, i32, i32, ptr, ptr, ptr, ptr, i32, i32, [8 x i64], i32, i32, i32, i32, i32, i32, i32, ptr, ptr, i32, i32, i32, i32, i32, i32, i32, i32, i32, i32, ptr, ptr, i32, i32, ptr, ptr, ptr, ptr, i32, i32, i64, i32, i32, i64, ptr, i64, ptr, i32, ptr, i32 }
%struct.AVRational = type { i32, i32 }
%struct.AVChannelLayout = type { i32, i32, %union.anon.1, ptr }
%union.anon.1 = type { i64 }
%struct.G723_1_Context = type { ptr, i32, [2 x %struct.G723_1_ChannelContext] }
%struct.G723_1_ChannelContext = type { [4 x %struct.G723_1_Subframe], i32, i32, i32, [3 x i8], [2 x i32], i32, [10 x i16], [10 x i16], [145 x i16], [389 x i16], [10 x i16], [10 x i16], [10 x i32], i32, i32, i32, i32, i32, i32, i32, i32, [399 x i16], [120 x i16], [145 x i16], i16, i32, [10 x i16], [10 x i16], [145 x i16] }
%struct.G723_1_Subframe = type { i32, i32, i32, i32, i32, i32, i32 }

@.str.7 = private unnamed_addr constant [62 x i8] c"Only mono and stereo are supported (requested channels: %d).\0A\00", align 1
@dc_lsp = internal constant [10 x i16] [i16 3131, i16 4721, i16 7690, i16 10806, i16 13872, i16 16495, i16 19752, i16 22260, i16 25484, i16 27718], align 16

; Function Attrs: cold nounwind optsize uwtable
define internal i32 @g723_1_decode_init(ptr noundef %0) #0 {
  %2 = alloca i32, align 4
  %3 = alloca ptr, align 8
  %4 = alloca ptr, align 8
  %5 = alloca i32, align 4
  %6 = alloca i32, align 4
  %7 = alloca ptr, align 8
  store ptr %0, ptr %3, align 8, !tbaa !4
  call void @llvm.lifetime.start.p0(i64 8, ptr %4) #10
  %8 = load ptr, ptr %3, align 8, !tbaa !4
  %9 = getelementptr inbounds nuw %struct.AVCodecContext, ptr %8, i32 0, i32 6
  %10 = load ptr, ptr %9, align 8, !tbaa !9
  store ptr %10, ptr %4, align 8, !tbaa !29
  %11 = load ptr, ptr %3, align 8, !tbaa !4
  %12 = getelementptr inbounds nuw %struct.AVCodecContext, ptr %11, i32 0, i32 70
  store i32 6, ptr %12, align 4, !tbaa !31
  %13 = load ptr, ptr %3, align 8, !tbaa !4
  %14 = getelementptr inbounds nuw %struct.AVCodecContext, ptr %13, i32 0, i32 71
  %15 = getelementptr inbounds nuw %struct.AVChannelLayout, ptr %14, i32 0, i32 1
  %16 = load i32, ptr %15, align 4, !tbaa !32
  %17 = icmp slt i32 %16, 1
  br i1 %17, label %24, label %18

18:                                               ; preds = %1
  %19 = load ptr, ptr %3, align 8, !tbaa !4
  %20 = getelementptr inbounds nuw %struct.AVCodecContext, ptr %19, i32 0, i32 71
  %21 = getelementptr inbounds nuw %struct.AVChannelLayout, ptr %20, i32 0, i32 1
  %22 = load i32, ptr %21, align 4, !tbaa !32
  %23 = icmp sgt i32 %22, 2
  br i1 %23, label %24, label %30

24:                                               ; preds = %18, %1
  %25 = load ptr, ptr %3, align 8, !tbaa !4
  %26 = load ptr, ptr %3, align 8, !tbaa !4
  %27 = getelementptr inbounds nuw %struct.AVCodecContext, ptr %26, i32 0, i32 71
  %28 = getelementptr inbounds nuw %struct.AVChannelLayout, ptr %27, i32 0, i32 1
  %29 = load i32, ptr %28, align 4, !tbaa !32
  call void (ptr, i32, ptr, ...) @av_log(ptr noundef %25, i32 noundef 16, ptr noundef @.str.7, i32 noundef %29)
  store i32 -22, ptr %2, align 4
  store i32 1, ptr %5, align 4
  br label %61

30:                                               ; preds = %18
  call void @llvm.lifetime.start.p0(i64 4, ptr %6) #10
  store i32 0, ptr %6, align 4, !tbaa !33
  br label %31

31:                                               ; preds = %57, %30
  %32 = load i32, ptr %6, align 4, !tbaa !33
  %33 = load ptr, ptr %3, align 8, !tbaa !4
  %34 = getelementptr inbounds nuw %struct.AVCodecContext, ptr %33, i32 0, i32 71
  %35 = getelementptr inbounds nuw %struct.AVChannelLayout, ptr %34, i32 0, i32 1
  %36 = load i32, ptr %35, align 4, !tbaa !32
  %37 = icmp slt i32 %32, %36
  br i1 %37, label %39, label %38

38:                                               ; preds = %31
  store i32 2, ptr %5, align 4
  call void @llvm.lifetime.end.p0(i64 4, ptr %6) #10
  br label %60

39:                                               ; preds = %31
  call void @llvm.lifetime.start.p0(i64 8, ptr %7) #10
  %40 = load ptr, ptr %4, align 8, !tbaa !29
  %41 = getelementptr inbounds nuw %struct.G723_1_Context, ptr %40, i32 0, i32 2
  %42 = load i32, ptr %6, align 4, !tbaa !33
  %43 = sext i32 %42 to i64
  %44 = getelementptr inbounds [2 x %struct.G723_1_ChannelContext], ptr %41, i64 0, i64 %43
  store ptr %44, ptr %7, align 8, !tbaa !34
  %45 = load ptr, ptr %7, align 8, !tbaa !34
  %46 = getelementptr inbounds nuw %struct.G723_1_ChannelContext, ptr %45, i32 0, i32 21
  store i32 4096, ptr %46, align 4, !tbaa !36
  %47 = load ptr, ptr %7, align 8, !tbaa !34
  %48 = getelementptr inbounds nuw %struct.G723_1_ChannelContext, ptr %47, i32 0, i32 7
  %49 = getelementptr inbounds [10 x i16], ptr %48, i64 0, i64 0
  call void @llvm.memcpy.p0.p0.i64(ptr align 4 %49, ptr align 16 @dc_lsp, i64 20, i1 false)
  %50 = load ptr, ptr %7, align 8, !tbaa !34
  %51 = getelementptr inbounds nuw %struct.G723_1_ChannelContext, ptr %50, i32 0, i32 8
  %52 = getelementptr inbounds [10 x i16], ptr %51, i64 0, i64 0
  call void @llvm.memcpy.p0.p0.i64(ptr align 4 %52, ptr align 16 @dc_lsp, i64 20, i1 false)
  %53 = load ptr, ptr %7, align 8, !tbaa !34
  %54 = getelementptr inbounds nuw %struct.G723_1_ChannelContext, ptr %53, i32 0, i32 15
  store i32 12345, ptr %54, align 4, !tbaa !39
  %55 = load ptr, ptr %7, align 8, !tbaa !34
  %56 = getelementptr inbounds nuw %struct.G723_1_ChannelContext, ptr %55, i32 0, i32 2
  store i32 1, ptr %56, align 4, !tbaa !40
  call void @llvm.lifetime.end.p0(i64 8, ptr %7) #10
  br label %57

57:                                               ; preds = %39
  %58 = load i32, ptr %6, align 4, !tbaa !33
  %59 = add nsw i32 %58, 1
  store i32 %59, ptr %6, align 4, !tbaa !33
  br label %31, !llvm.loop !41

60:                                               ; preds = %38
  store i32 0, ptr %2, align 4
  store i32 1, ptr %5, align 4
  br label %61

61:                                               ; preds = %60, %24
  call void @llvm.lifetime.end.p0(i64 8, ptr %4) #10
  %62 = load i32, ptr %2, align 4
  ret i32 %62
}