; Function Attrs: cold nounwind optsize uwtable
define internal range(i32 -22, 1) i32 @g723_1_decode_init(ptr noundef initializes((348, 352)) %0) #0 {
  %2 = getelementptr inbounds nuw i8, ptr %0, i64 32
  %3 = load ptr, ptr %2, align 8, !tbaa !4
  %4 = getelementptr inbounds nuw i8, ptr %0, i64 348
  store i32 6, ptr %4, align 4, !tbaa !27
  %5 = getelementptr inbounds nuw i8, ptr %0, i64 356
  %6 = load i32, ptr %5, align 4, !tbaa !28
  %7 = add i32 %6, -3
  %or.cond = icmp ult i32 %7, -2
  br i1 %or.cond, label %9, label %.lr.ph

.lr.ph:                                           ; preds = %1
  %8 = getelementptr inbounds nuw i8, ptr %3, i64 12
  br label %10

9:                                                ; preds = %1
  tail call void (ptr, i32, ptr, ...) @av_log(ptr noundef nonnull %0, i32 noundef 16, ptr noundef nonnull @.str.7, i32 noundef %6) #8
  br label %.loopexit

10:                                               ; preds = %.lr.ph, %10
  %indvars.iv = phi i64 [ 0, %.lr.ph ], [ %indvars.iv.next, %10 ]
  %11 = getelementptr inbounds nuw [2 x %struct.G723_1_ChannelContext], ptr %8, i64 0, i64 %indvars.iv
  %12 = getelementptr inbounds nuw i8, ptr %11, i64 1356
  store i32 4096, ptr %12, align 4, !tbaa !29
  %13 = getelementptr inbounds nuw i8, ptr %11, i64 140
  tail call void @llvm.memcpy.p0.p0.i64(ptr noundef nonnull align 4 dereferenceable(20) %13, ptr noundef nonnull align 16 dereferenceable(20) @dc_lsp, i64 20, i1 false)
  %14 = getelementptr inbounds nuw i8, ptr %11, i64 160
  tail call void @llvm.memcpy.p0.p0.i64(ptr noundef nonnull align 4 dereferenceable(20) %14, ptr noundef nonnull align 16 dereferenceable(20) @dc_lsp, i64 20, i1 false)
  %15 = getelementptr inbounds nuw i8, ptr %11, i64 1332
  store i32 12345, ptr %15, align 4, !tbaa !32
  %16 = getelementptr inbounds nuw i8, ptr %11, i64 116
  store i32 1, ptr %16, align 4, !tbaa !33
  %indvars.iv.next = add nuw nsw i64 %indvars.iv, 1
  %17 = load i32, ptr %5, align 4, !tbaa !28
  %18 = sext i32 %17 to i64
  %19 = icmp slt i64 %indvars.iv.next, %18
  br i1 %19, label %10, label %.loopexit, !llvm.loop !34

.loopexit:                                        ; preds = %10, %9
  %.0 = phi i32 [ -22, %9 ], [ 0, %10 ]
  ret i32 %.0
}